target datalayout = "e-m:e-p270:32:32-p271:32:32-p272:64:64-i64:64-i128:128-f80:128-n8:16:32:64-S128"
target triple = "x86_64-pc-linux-gnu"

%struct.MqcState = type { ptr, ptr, i32, i32, i32, [19 x i8], i32 }

@ff_mqc_qe = external constant [94 x i16], align 16
@ff_mqc_nmps = external constant [94 x i8], align 16
@ff_mqc_nlps = external constant [94 x i8], align 16

; Function Attrs: nounwind uwtable
define internal void @byteout(ptr noundef %0) #0 {
  %2 = alloca ptr, align 8
  store ptr %0, ptr %2, align 8, !tbaa !4
  br label %3

3:                                                ; preds = %35, %1
  %4 = load ptr, ptr %2, align 8, !tbaa !4
  %5 = getelementptr inbounds nuw %struct.MqcState, ptr %4, i32 0, i32 0
  %6 = load ptr, ptr %5, align 8, !tbaa !15
  %7 = load i8, ptr %6, align 1, !tbaa !17
  %8 = zext i8 %7 to i32
  %9 = icmp eq i32 %8, 255
  br i1 %9, label %10, label %29

10:                                               ; preds = %3
  %11 = load ptr, ptr %2, align 8, !tbaa !4
  %12 = getelementptr inbounds nuw %struct.MqcState, ptr %11, i32 0, i32 0
  %13 = load ptr, ptr %12, align 8, !tbaa !15
  %14 = getelementptr inbounds nuw i8, ptr %13, i32 1
  store ptr %14, ptr %12, align 8, !tbaa !15
  %15 = load ptr, ptr %2, align 8, !tbaa !4
  %16 = getelementptr inbounds nuw %struct.MqcState, ptr %15, i32 0, i32 3
  %17 = load i32, ptr %16, align 4, !tbaa !14
  %18 = lshr i32 %17, 20
  %19 = trunc i32 %18 to i8
  %20 = load ptr, ptr %2, align 8, !tbaa !4
  %21 = getelementptr inbounds nuw %struct.MqcState, ptr %20, i32 0, i32 0
  %22 = load ptr, ptr %21, align 8, !tbaa !15
  store i8 %19, ptr %22, align 1, !tbaa !17
  %23 = load ptr, ptr %2, align 8, !tbaa !4
  %24 = getelementptr inbounds nuw %struct.MqcState, ptr %23, i32 0, i32 3
  %25 = load i32, ptr %24, align 4, !tbaa !14
  %26 = and i32 %25, 1048575
  store i32 %26, ptr %24, align 4, !tbaa !14
  %27 = load ptr, ptr %2, align 8, !tbaa !4
  %28 = getelementptr inbounds nuw %struct.MqcState, ptr %27, i32 0, i32 4
  store i32 7, ptr %28, align 8, !tbaa !18
  br label %65

29:                                               ; preds = %3
  %30 = load ptr, ptr %2, align 8, !tbaa !4
  %31 = getelementptr inbounds nuw %struct.MqcState, ptr %30, i32 0, i32 3
  %32 = load i32, ptr %31, align 4, !tbaa !14
  %33 = and i32 %32, 134217728
  %34 = icmp ne i32 %33, 0
  br i1 %34, label %35, label %45

35:                                               ; preds = %29
  %36 = load ptr, ptr %2, align 8, !tbaa !4
  %37 = getelementptr inbounds nuw %struct.MqcState, ptr %36, i32 0, i32 0
  %38 = load ptr, ptr %37, align 8, !tbaa !15
  %39 = load i8, ptr %38, align 1, !tbaa !17
  %40 = add i8 %39, 1
  store i8 %40, ptr %38, align 1, !tbaa !17
  %41 = load ptr, ptr %2, align 8, !tbaa !4
  %42 = getelementptr inbounds nuw %struct.MqcState, ptr %41, i32 0, i32 3
  %43 = load i32, ptr %42, align 4, !tbaa !14
  %44 = and i32 %43, 134217727
  store i32 %44, ptr %42, align 4, !tbaa !14
  br label %3

45:                                               ; preds = %29
  %46 = load ptr, ptr %2, align 8, !tbaa !4
  %47 = getelementptr inbounds nuw %struct.MqcState, ptr %46, i32 0, i32 0
  %48 = load ptr, ptr %47, align 8, !tbaa !15
  %49 = getelementptr inbounds nuw i8, ptr %48, i32 1
  store ptr %49, ptr %47, align 8, !tbaa !15
  %50 = load ptr, ptr %2, align 8, !tbaa !4
  %51 = getelementptr inbounds nuw %struct.MqcState, ptr %50, i32 0, i32 3
  %52 = load i32, ptr %51, align 4, !tbaa !14
  %53 = lshr i32 %52, 19
  %54 = trunc i32 %53 to i8
  %55 = load ptr, ptr %2, align 8, !tbaa !4
  %56 = getelementptr inbounds nuw %struct.MqcState, ptr %55, i32 0, i32 0
  %57 = load ptr, ptr %56, align 8, !tbaa !15
  store i8 %54, ptr %57, align 1, !tbaa !17
  %58 = load ptr, ptr %2, align 8, !tbaa !4
  %59 = getelementptr inbounds nuw %struct.MqcState, ptr %58, i32 0, i32 3
  %60 = load i32, ptr %59, align 4, !tbaa !14
  %61 = and i32 %60, 524287
  store i32 %61, ptr %59, align 4, !tbaa !14
  %62 = load ptr, ptr %2, align 8, !tbaa !4
  %63 = getelementptr inbounds nuw %struct.MqcState, ptr %62, i32 0, i32 4
  store i32 8, ptr %63, align 8, !tbaa !18
  br label %64

64:                                               ; preds = %45
  br label %65

65:                                               ; preds = %64, %10
  ret void
}

; Function Attrs: nounwind uwtable
define internal void @renorme(ptr noundef %0) #0 {
  %2 = alloca ptr, align 8
  store ptr %0, ptr %2, align 8, !tbaa !4
  br label %3

3:                                                ; preds = %26, %1
  %4 = load ptr, ptr %2, align 8, !tbaa !4
  %5 = getelementptr inbounds nuw %struct.MqcState, ptr %4, i32 0, i32 2
  %6 = load i32, ptr %5, align 8, !tbaa !11
  %7 = load ptr, ptr %2, align 8, !tbaa !4
  %8 = getelementptr inbounds nuw %struct.MqcState, ptr %7, i32 0, i32 2
  %9 = load i32, ptr %8, align 8, !tbaa !11
  %10 = add i32 %9, %6
  store i32 %10, ptr %8, align 8, !tbaa !11
  %11 = load ptr, ptr %2, align 8, !tbaa !4
  %12 = getelementptr inbounds nuw %struct.MqcState, ptr %11, i32 0, i32 3
  %13 = load i32, ptr %12, align 4, !tbaa !14
  %14 = load ptr, ptr %2, align 8, !tbaa !4
  %15 = getelementptr inbounds nuw %struct.MqcState, ptr %14, i32 0, i32 3
  %16 = load i32, ptr %15, align 4, !tbaa !14
  %17 = add i32 %16, %13
  store i32 %17, ptr %15, align 4, !tbaa !14
  %18 = load ptr, ptr %2, align 8, !tbaa !4
  %19 = getelementptr inbounds nuw %struct.MqcState, ptr %18, i32 0, i32 4
  %20 = load i32, ptr %19, align 8, !tbaa !18
  %21 = add i32 %20, -1
  store i32 %21, ptr %19, align 8, !tbaa !18
  %22 = icmp ne i32 %21, 0
  br i1 %22, label %25, label %23

23:                                               ; preds = %3
  %24 = load ptr, ptr %2, align 8, !tbaa !4
  call void @byteout(ptr noundef %24)
  br label %25

25:                                               ; preds = %23, %3
  br label %26

26:                                               ; preds = %25
  %27 = load ptr, ptr %2, align 8, !tbaa !4
  %28 = getelementptr inbounds nuw %struct.MqcState, ptr %27, i32 0, i32 2
  %29 = load i32, ptr %28, align 8, !tbaa !11
  %30 = and i32 %29, 32768
  %31 = icmp ne i32 %30, 0
  %32 = xor i1 %31, true
  br i1 %32, label %3, label %33, !llvm.loop !22

33:                                               ; preds = %26
  ret void
}

; Function Attrs: nounwind uwtable
define void @ff_mqc_encode(ptr noundef %0, ptr noundef %1, i32 noundef %2) #0 {
  %4 = alloca ptr, align 8
  %5 = alloca ptr, align 8
  %6 = alloca i32, align 4
  %7 = alloca i32, align 4
  store ptr %0, ptr %4, align 8, !tbaa !4
  store ptr %1, ptr %5, align 8, !tbaa !9
  store i32 %2, ptr %6, align 4, !tbaa !19
  call void @llvm.lifetime.start.p0(i64 4, ptr %7) #4
  %8 = load ptr, ptr %5, align 8, !tbaa !9
  %9 = load i8, ptr %8, align 1, !tbaa !17
  %10 = zext i8 %9 to i64
  %11 = getelementptr inbounds nuw [94 x i16], ptr @ff_mqc_qe, i64 0, i64 %10
  %12 = load i16, ptr %11, align 2, !tbaa !20
  %13 = zext i16 %12 to i32
  store i32 %13, ptr %7, align 4, !tbaa !19
  %14 = load i32, ptr %7, align 4, !tbaa !19
  %15 = load ptr, ptr %4, align 8, !tbaa !4
  %16 = getelementptr inbounds nuw %struct.MqcState, ptr %15, i32 0, i32 2
  %17 = load i32, ptr %16, align 8, !tbaa !11
  %18 = sub i32 %17, %14
  store i32 %18, ptr %16, align 8, !tbaa !11
  %19 = load ptr, ptr %5, align 8, !tbaa !9
  %20 = load i8, ptr %19, align 1, !tbaa !17
  %21 = zext i8 %20 to i32
  %22 = and i32 %21, 1
  %23 = load i32, ptr %6, align 4, !tbaa !19
  %24 = icmp eq i32 %22, %23
  br i1 %24, label %25, label %62

25:                                               ; preds = %3
  %26 = load ptr, ptr %4, align 8, !tbaa !4
  %27 = getelementptr inbounds nuw %struct.MqcState, ptr %26, i32 0, i32 2
  %28 = load i32, ptr %27, align 8, !tbaa !11
  %29 = and i32 %28, 32768
  %30 = icmp ne i32 %29, 0
  br i1 %30, label %55, label %31

31:                                               ; preds = %25
  %32 = load ptr, ptr %4, align 8, !tbaa !4
  %33 = getelementptr inbounds nuw %struct.MqcState, ptr %32, i32 0, i32 2
  %34 = load i32, ptr %33, align 8, !tbaa !11
  %35 = load i32, ptr %7, align 4, !tbaa !19
  %36 = icmp ult i32 %34, %35
  br i1 %36, label %37, label %41

37:                                               ; preds = %31
  %38 = load i32, ptr %7, align 4, !tbaa !19
  %39 = load ptr, ptr %4, align 8, !tbaa !4
  %40 = getelementptr inbounds nuw %struct.MqcState, ptr %39, i32 0, i32 2
  store i32 %38, ptr %40, align 8, !tbaa !11
  br label %47

41:                                               ; preds = %31
  %42 = load i32, ptr %7, align 4, !tbaa !19
  %43 = load ptr, ptr %4, align 8, !tbaa !4
  %44 = getelementptr inbounds nuw %struct.MqcState, ptr %43, i32 0, i32 3
  %45 = load i32, ptr %44, align 4, !tbaa !14
  %46 = add i32 %45, %42
  store i32 %46, ptr %44, align 4, !tbaa !14
  br label %47

47:                                               ; preds = %41, %37
  %48 = load ptr, ptr %5, align 8, !tbaa !9
  %49 = load i8, ptr %48, align 1, !tbaa !17
  %50 = zext i8 %49 to i64
  %51 = getelementptr inbounds nuw [94 x i8], ptr @ff_mqc_nmps, i64 0, i64 %50
  %52 = load i8, ptr %51, align 1, !tbaa !17
  %53 = load ptr, ptr %5, align 8, !tbaa !9
  store i8 %52, ptr %53, align 1, !tbaa !17
  %54 = load ptr, ptr %4, align 8, !tbaa !4
  call void @renorme(ptr noundef %54)
  br label %61

55:                                               ; preds = %25
  %56 = load i32, ptr %7, align 4, !tbaa !19
  %57 = load ptr, ptr %4, align 8, !tbaa !4
  %58 = getelementptr inbounds nuw %struct.MqcState, ptr %57, i32 0, i32 3
  %59 = load i32, ptr %58, align 4, !tbaa !14
  %60 = add i32 %59, %56
  store i32 %60, ptr %58, align 4, !tbaa !14
  br label %61

61:                                               ; preds = %55, %47
  br label %86

62:                                               ; preds = %3
  %63 = load ptr, ptr %4, align 8, !tbaa !4
  %64 = getelementptr inbounds nuw %struct.MqcState, ptr %63, i32 0, i32 2
  %65 = load i32, ptr %64, align 8, !tbaa !11
  %66 = load i32, ptr %7, align 4, !tbaa !19
  %67 = icmp ult i32 %65, %66
  br i1 %67, label %68, label %74

68:                                               ; preds = %62
  %69 = load i32, ptr %7, align 4, !tbaa !19
  %70 = load ptr, ptr %4, align 8, !tbaa !4
  %71 = getelementptr inbounds nuw %struct.MqcState, ptr %70, i32 0, i32 3
  %72 = load i32, ptr %71, align 4, !tbaa !14
  %73 = add i32 %72, %69
  store i32 %73, ptr %71, align 4, !tbaa !14
  br label %78

74:                                               ; preds = %62
  %75 = load i32, ptr %7, align 4, !tbaa !19
  %76 = load ptr, ptr %4, align 8, !tbaa !4
  %77 = getelementptr inbounds nuw %struct.MqcState, ptr %76, i32 0, i32 2
  store i32 %75, ptr %77, align 8, !tbaa !11
  br label %78

78:                                               ; preds = %74, %68
  %79 = load ptr, ptr %5, align 8, !tbaa !9
  %80 = load i8, ptr %79, align 1, !tbaa !17
  %81 = zext i8 %80 to i64
  %82 = getelementptr inbounds nuw [94 x i8], ptr @ff_mqc_nlps, i64 0, i64 %81
  %83 = load i8, ptr %82, align 1, !tbaa !17
  %84 = load ptr, ptr %5, align 8, !tbaa !9
  store i8 %83, ptr %84, align 1, !tbaa !17
  %85 = load ptr, ptr %4, align 8, !tbaa !4
  call void @renorme(ptr noundef %85)
  br label %86

86:                                               ; preds = %78, %61
  call void @llvm.lifetime.end.p0(i64 4, ptr %7) #4
  ret void
}