; Function Attrs: nofree norecurse nosync nounwind memory(readwrite, inaccessiblemem: none) uwtable
define void @ff_mqc_encode(ptr noundef captures(none) %0, ptr noundef captures(none) %1, i32 noundef %2) local_unnamed_addr #2 {
  %4 = load i8, ptr %1, align 1, !tbaa !14
  %5 = zext i8 %4 to i64
  %6 = getelementptr inbounds nuw [94 x i16], ptr @ff_mqc_qe, i64 0, i64 %5
  %7 = load i16, ptr %6, align 2, !tbaa !16
  %8 = zext i16 %7 to i32
  %9 = getelementptr inbounds nuw i8, ptr %0, i64 16
  %10 = load i32, ptr %9, align 8, !tbaa !4
  %11 = sub i32 %10, %8
  store i32 %11, ptr %9, align 8, !tbaa !4
  %12 = load i8, ptr %1, align 1, !tbaa !14
  %13 = and i8 %12, 1
  %14 = zext nneg i8 %13 to i32
  %15 = icmp eq i32 %2, %14
  br i1 %15, label %16, label %73

16:                                               ; preds = %3
  %17 = and i32 %11, 32768
  %.not = icmp eq i32 %17, 0
  br i1 %.not, label %18, label %69

18:                                               ; preds = %16
  %19 = icmp ult i32 %11, %8
  br i1 %19, label %20, label %21

20:                                               ; preds = %18
  store i32 %8, ptr %9, align 8, !tbaa !4
  br label %25

21:                                               ; preds = %18
  %22 = getelementptr inbounds nuw i8, ptr %0, i64 20
  %23 = load i32, ptr %22, align 4, !tbaa !11
  %24 = add i32 %23, %8
  store i32 %24, ptr %22, align 4, !tbaa !11
  br label %25

25:                                               ; preds = %21, %20
  %26 = load i8, ptr %1, align 1, !tbaa !14
  %27 = zext i8 %26 to i64
  %28 = getelementptr inbounds nuw [94 x i8], ptr @ff_mqc_nmps, i64 0, i64 %27
  %29 = load i8, ptr %28, align 1, !tbaa !14
  store i8 %29, ptr %1, align 1, !tbaa !14
  %30 = getelementptr inbounds nuw i8, ptr %0, i64 20
  %31 = getelementptr inbounds nuw i8, ptr %0, i64 24
  %.pre.i = load i32, ptr %9, align 8, !tbaa !4
  %.pre18.i = load i32, ptr %30, align 4, !tbaa !11
  %.pre19.i = load i32, ptr %31, align 8, !tbaa !15
  br label %32

32:                                               ; preds = %64, %25
  %33 = phi i32 [ %66, %64 ], [ %.pre19.i, %25 ]
  %34 = phi i32 [ %67, %64 ], [ %.pre18.i, %25 ]
  %35 = phi i32 [ %65, %64 ], [ %.pre.i, %25 ]
  %36 = shl i32 %35, 1
  store i32 %36, ptr %9, align 8, !tbaa !4
  %37 = shl i32 %34, 1
  store i32 %37, ptr %30, align 4, !tbaa !11
  %38 = add i32 %33, -1
  store i32 %38, ptr %31, align 8, !tbaa !15
  %.not.i = icmp eq i32 %38, 0
  br i1 %.not.i, label %39, label %64

39:                                               ; preds = %32
  %40 = load ptr, ptr %0, align 8, !tbaa !12
  %41 = load i8, ptr %40, align 1, !tbaa !14
  %42 = icmp eq i8 %41, -1
  br i1 %42, label %._crit_edge.i.i, label %.lr.ph.i.i

._crit_edge.i.i:                                  ; preds = %51, %39
  %43 = phi i32 [ %37, %39 ], [ %54, %51 ]
  %.lcssa.i.i = phi ptr [ %40, %39 ], [ %55, %51 ]
  %44 = getelementptr inbounds nuw i8, ptr %.lcssa.i.i, i64 1
  store ptr %44, ptr %0, align 8, !tbaa !12
  %45 = lshr i32 %43, 20
  %46 = trunc i32 %45 to i8
  store i8 %46, ptr %44, align 1, !tbaa !14
  br label %byteout.exit.i

.lr.ph.i.i:                                       ; preds = %39, %51
  %47 = phi i32 [ %54, %51 ], [ %37, %39 ]
  %48 = phi i8 [ %56, %51 ], [ %41, %39 ]
  %49 = phi ptr [ %55, %51 ], [ %40, %39 ]
  %50 = and i32 %47, 134217728
  %.not.i.i = icmp eq i32 %50, 0
  br i1 %.not.i.i, label %58, label %51

51:                                               ; preds = %.lr.ph.i.i
  %52 = add nuw i8 %48, 1
  store i8 %52, ptr %49, align 1, !tbaa !14
  %53 = load i32, ptr %30, align 4, !tbaa !11
  %54 = and i32 %53, 134217727
  store i32 %54, ptr %30, align 4, !tbaa !11
  %55 = load ptr, ptr %0, align 8, !tbaa !12
  %56 = load i8, ptr %55, align 1, !tbaa !14
  %57 = icmp eq i8 %56, -1
  br i1 %57, label %._crit_edge.i.i, label %.lr.ph.i.i

58:                                               ; preds = %.lr.ph.i.i
  %59 = getelementptr inbounds nuw i8, ptr %49, i64 1
  store ptr %59, ptr %0, align 8, !tbaa !12
  %60 = lshr i32 %47, 19
  %61 = trunc i32 %60 to i8
  store i8 %61, ptr %59, align 1, !tbaa !14
  br label %byteout.exit.i

byteout.exit.i:                                   ; preds = %58, %._crit_edge.i.i
  %.sink26.i = phi i32 [ 1048575, %._crit_edge.i.i ], [ 524287, %58 ]
  %.sink.i.i = phi i32 [ 7, %._crit_edge.i.i ], [ 8, %58 ]
  %62 = load i32, ptr %30, align 4, !tbaa !11
  %63 = and i32 %62, %.sink26.i
  store i32 %63, ptr %30, align 4, !tbaa !11
  store i32 %.sink.i.i, ptr %31, align 8, !tbaa !15
  %.pre20.i = load i32, ptr %9, align 8, !tbaa !4
  br label %64

64:                                               ; preds = %byteout.exit.i, %32
  %65 = phi i32 [ %36, %32 ], [ %.pre20.i, %byteout.exit.i ]
  %66 = phi i32 [ %38, %32 ], [ %.sink.i.i, %byteout.exit.i ]
  %67 = phi i32 [ %37, %32 ], [ %63, %byteout.exit.i ]
  %68 = and i32 %65, 32768
  %.not7.i = icmp eq i32 %68, 0
  br i1 %.not7.i, label %32, label %renorme.exit, !llvm.loop !18

69:                                               ; preds = %16
  %70 = getelementptr inbounds nuw i8, ptr %0, i64 20
  %71 = load i32, ptr %70, align 4, !tbaa !11
  %72 = add i32 %71, %8
  store i32 %72, ptr %70, align 4, !tbaa !11
  br label %renorme.exit

73:                                               ; preds = %3
  %74 = icmp ult i32 %11, %8
  br i1 %74, label %75, label %79

75:                                               ; preds = %73
  %76 = getelementptr inbounds nuw i8, ptr %0, i64 20
  %77 = load i32, ptr %76, align 4, !tbaa !11
  %78 = add i32 %77, %8
  store i32 %78, ptr %76, align 4, !tbaa !11
  br label %80

79:                                               ; preds = %73
  store i32 %8, ptr %9, align 8, !tbaa !4
  br label %80

80:                                               ; preds = %79, %75
  %81 = load i8, ptr %1, align 1, !tbaa !14
  %82 = zext i8 %81 to i64
  %83 = getelementptr inbounds nuw [94 x i8], ptr @ff_mqc_nlps, i64 0, i64 %82
  %84 = load i8, ptr %83, align 1, !tbaa !14
  store i8 %84, ptr %1, align 1, !tbaa !14
  %85 = getelementptr inbounds nuw i8, ptr %0, i64 20
  %86 = getelementptr inbounds nuw i8, ptr %0, i64 24
  %.pre.i25 = load i32, ptr %9, align 8, !tbaa !4
  %.pre18.i26 = load i32, ptr %85, align 4, !tbaa !11
  %.pre19.i27 = load i32, ptr %86, align 8, !tbaa !15
  br label %87

87:                                               ; preds = %119, %80
  %88 = phi i32 [ %121, %119 ], [ %.pre19.i27, %80 ]
  %89 = phi i32 [ %122, %119 ], [ %.pre18.i26, %80 ]
  %90 = phi i32 [ %120, %119 ], [ %.pre.i25, %80 ]
  %91 = shl i32 %90, 1
  store i32 %91, ptr %9, align 8, !tbaa !4
  %92 = shl i32 %89, 1
  store i32 %92, ptr %85, align 4, !tbaa !11
  %93 = add i32 %88, -1
  store i32 %93, ptr %86, align 8, !tbaa !15
  %.not.i28 = icmp eq i32 %93, 0
  br i1 %.not.i28, label %94, label %119

94:                                               ; preds = %87
  %95 = load ptr, ptr %0, align 8, !tbaa !12
  %96 = load i8, ptr %95, align 1, !tbaa !14
  %97 = icmp eq i8 %96, -1
  br i1 %97, label %._crit_edge.i.i32, label %.lr.ph.i.i30

._crit_edge.i.i32:                                ; preds = %106, %94
  %98 = phi i32 [ %92, %94 ], [ %109, %106 ]
  %.lcssa.i.i33 = phi ptr [ %95, %94 ], [ %110, %106 ]
  %99 = getelementptr inbounds nuw i8, ptr %.lcssa.i.i33, i64 1
  store ptr %99, ptr %0, align 8, !tbaa !12
  %100 = lshr i32 %98, 20
  %101 = trunc i32 %100 to i8
  store i8 %101, ptr %99, align 1, !tbaa !14
  br label %byteout.exit.i34

.lr.ph.i.i30:                                     ; preds = %94, %106
  %102 = phi i32 [ %109, %106 ], [ %92, %94 ]
  %103 = phi i8 [ %111, %106 ], [ %96, %94 ]
  %104 = phi ptr [ %110, %106 ], [ %95, %94 ]
  %105 = and i32 %102, 134217728
  %.not.i.i31 = icmp eq i32 %105, 0
  br i1 %.not.i.i31, label %113, label %106

106:                                              ; preds = %.lr.ph.i.i30
  %107 = add nuw i8 %103, 1
  store i8 %107, ptr %104, align 1, !tbaa !14
  %108 = load i32, ptr %85, align 4, !tbaa !11
  %109 = and i32 %108, 134217727
  store i32 %109, ptr %85, align 4, !tbaa !11
  %110 = load ptr, ptr %0, align 8, !tbaa !12
  %111 = load i8, ptr %110, align 1, !tbaa !14
  %112 = icmp eq i8 %111, -1
  br i1 %112, label %._crit_edge.i.i32, label %.lr.ph.i.i30

113:                                              ; preds = %.lr.ph.i.i30
  %114 = getelementptr inbounds nuw i8, ptr %104, i64 1
  store ptr %114, ptr %0, align 8, !tbaa !12
  %115 = lshr i32 %102, 19
  %116 = trunc i32 %115 to i8
  store i8 %116, ptr %114, align 1, !tbaa !14
  br label %byteout.exit.i34

byteout.exit.i34:                                 ; preds = %113, %._crit_edge.i.i32
  %.sink26.i35 = phi i32 [ 1048575, %._crit_edge.i.i32 ], [ 524287, %113 ]
  %.sink.i.i36 = phi i32 [ 7, %._crit_edge.i.i32 ], [ 8, %113 ]
  %117 = load i32, ptr %85, align 4, !tbaa !11
  %118 = and i32 %117, %.sink26.i35
  store i32 %118, ptr %85, align 4, !tbaa !11
  store i32 %.sink.i.i36, ptr %86, align 8, !tbaa !15
  %.pre20.i37 = load i32, ptr %9, align 8, !tbaa !4
  br label %119

119:                                              ; preds = %byteout.exit.i34, %87
  %120 = phi i32 [ %91, %87 ], [ %.pre20.i37, %byteout.exit.i34 ]
  %121 = phi i32 [ %93, %87 ], [ %.sink.i.i36, %byteout.exit.i34 ]
  %122 = phi i32 [ %92, %87 ], [ %118, %byteout.exit.i34 ]
  %123 = and i32 %120, 32768
  %.not7.i29 = icmp eq i32 %123, 0
  br i1 %.not7.i29, label %87, label %renorme.exit, !llvm.loop !18

renorme.exit:                                     ; preds = %119, %64, %69
  ret void
}